target datalayout = "e-m:e-p270:32:32-p271:32:32-p272:64:64-i64:64-i128:128-f80:128-n8:16:32:64-S128"
target triple = "x86_64-pc-linux-gnu"

%struct.b2Vec2 = type { float, float }
%struct.b2Transform = type { %struct.b2Vec2, %struct.b2Rot }
%struct.b2Rot = type { float, float }
%struct.b2Filter = type { i64, i64, i32 }
%struct.b2Shape = type { i32, i32, i32, i32, i32, i32, float, float, float, float, float, i32, %struct.b2AABB, %struct.b2AABB, %struct.b2Vec2, i32, %struct.b2Filter, ptr, i32, %union.anon.0, i16, i8, i8, i8, i8 }
%struct.b2AABB = type { %struct.b2Vec2, %struct.b2Vec2 }
%union.anon.0 = type { %struct.b2Polygon }
%struct.b2Polygon = type { [8 x %struct.b2Vec2], [8 x %struct.b2Vec2], %struct.b2Vec2, float, i32 }
%struct.b2Segment = type { %struct.b2Vec2, %struct.b2Vec2 }
%struct.b2ChainSegment = type { %struct.b2Vec2, %struct.b2Segment, %struct.b2Vec2, i32 }
%struct.b2CastOutput = type { %struct.b2Vec2, %struct.b2Vec2, float, i32, i8 }
%struct.b2ShapeCastInput = type { [8 x %struct.b2Vec2], i32, float, %struct.b2Vec2, float }

; Function Attrs: inlinehint nounwind uwtable
define internal <2 x float> @b2RotateVector(<2 x float> %0, <2 x float> %1) #5 {
  %3 = alloca %struct.b2Vec2, align 4
  %4 = alloca %struct.b2Rot, align 4
  %5 = alloca %struct.b2Vec2, align 4
  store <2 x float> %0, ptr %4, align 4
  store <2 x float> %1, ptr %5, align 4
  %6 = getelementptr inbounds nuw %struct.b2Vec2, ptr %3, i32 0, i32 0
  %7 = getelementptr inbounds nuw %struct.b2Rot, ptr %4, i32 0, i32 0
  %8 = load float, ptr %7, align 4, !tbaa !253
  %9 = getelementptr inbounds nuw %struct.b2Vec2, ptr %5, i32 0, i32 0
  %10 = load float, ptr %9, align 4, !tbaa !55
  %11 = fmul float %8, %10
  %12 = getelementptr inbounds nuw %struct.b2Rot, ptr %4, i32 0, i32 1
  %13 = load float, ptr %12, align 4, !tbaa !254
  %14 = getelementptr inbounds nuw %struct.b2Vec2, ptr %5, i32 0, i32 1
  %15 = load float, ptr %14, align 4, !tbaa !56
  %16 = fmul float %13, %15
  %17 = fsub float %11, %16
  store float %17, ptr %6, align 4, !tbaa !55
  %18 = getelementptr inbounds nuw %struct.b2Vec2, ptr %3, i32 0, i32 1
  %19 = getelementptr inbounds nuw %struct.b2Rot, ptr %4, i32 0, i32 1
  %20 = load float, ptr %19, align 4, !tbaa !254
  %21 = getelementptr inbounds nuw %struct.b2Vec2, ptr %5, i32 0, i32 0
  %22 = load float, ptr %21, align 4, !tbaa !55
  %23 = fmul float %20, %22
  %24 = getelementptr inbounds nuw %struct.b2Rot, ptr %4, i32 0, i32 0
  %25 = load float, ptr %24, align 4, !tbaa !253
  %26 = getelementptr inbounds nuw %struct.b2Vec2, ptr %5, i32 0, i32 1
  %27 = load float, ptr %26, align 4, !tbaa !56
  %28 = fmul float %25, %27
  %29 = fadd float %23, %28
  store float %29, ptr %18, align 4, !tbaa !56
  %30 = load <2 x float>, ptr %3, align 4
  ret <2 x float> %30
}

; Function Attrs: inlinehint nounwind uwtable
define internal <2 x float> @b2TransformPoint(<2 x float> %0, <2 x float> %1, <2 x float> %2) #5 {
  %4 = alloca %struct.b2Vec2, align 4
  %5 = alloca %struct.b2Transform, align 4
  %6 = alloca %struct.b2Vec2, align 4
  %7 = alloca float, align 4
  %8 = alloca float, align 4
  %9 = getelementptr inbounds nuw { <2 x float>, <2 x float> }, ptr %5, i32 0, i32 0
  store <2 x float> %0, ptr %9, align 4
  %10 = getelementptr inbounds nuw { <2 x float>, <2 x float> }, ptr %5, i32 0, i32 1
  store <2 x float> %1, ptr %10, align 4
  store <2 x float> %2, ptr %6, align 4
  call void @llvm.lifetime.start.p0(i64 4, ptr %7) #9
  %11 = getelementptr inbounds nuw %struct.b2Transform, ptr %5, i32 0, i32 1
  %12 = getelementptr inbounds nuw %struct.b2Rot, ptr %11, i32 0, i32 0
  %13 = load float, ptr %12, align 4, !tbaa !251
  %14 = getelementptr inbounds nuw %struct.b2Vec2, ptr %6, i32 0, i32 0
  %15 = load float, ptr %14, align 4, !tbaa !55
  %16 = fmul float %13, %15
  %17 = getelementptr inbounds nuw %struct.b2Transform, ptr %5, i32 0, i32 1
  %18 = getelementptr inbounds nuw %struct.b2Rot, ptr %17, i32 0, i32 1
  %19 = load float, ptr %18, align 4, !tbaa !252
  %20 = getelementptr inbounds nuw %struct.b2Vec2, ptr %6, i32 0, i32 1
  %21 = load float, ptr %20, align 4, !tbaa !56
  %22 = fmul float %19, %21
  %23 = fsub float %16, %22
  %24 = getelementptr inbounds nuw %struct.b2Transform, ptr %5, i32 0, i32 0
  %25 = getelementptr inbounds nuw %struct.b2Vec2, ptr %24, i32 0, i32 0
  %26 = load float, ptr %25, align 4, !tbaa !247
  %27 = fadd float %23, %26
  store float %27, ptr %7, align 4, !tbaa !50
  call void @llvm.lifetime.start.p0(i64 4, ptr %8) #9
  %28 = getelementptr inbounds nuw %struct.b2Transform, ptr %5, i32 0, i32 1
  %29 = getelementptr inbounds nuw %struct.b2Rot, ptr %28, i32 0, i32 1
  %30 = load float, ptr %29, align 4, !tbaa !252
  %31 = getelementptr inbounds nuw %struct.b2Vec2, ptr %6, i32 0, i32 0
  %32 = load float, ptr %31, align 4, !tbaa !55
  %33 = fmul float %30, %32
  %34 = getelementptr inbounds nuw %struct.b2Transform, ptr %5, i32 0, i32 1
  %35 = getelementptr inbounds nuw %struct.b2Rot, ptr %34, i32 0, i32 0
  %36 = load float, ptr %35, align 4, !tbaa !251
  %37 = getelementptr inbounds nuw %struct.b2Vec2, ptr %6, i32 0, i32 1
  %38 = load float, ptr %37, align 4, !tbaa !56
  %39 = fmul float %36, %38
  %40 = fadd float %33, %39
  %41 = getelementptr inbounds nuw %struct.b2Transform, ptr %5, i32 0, i32 0
  %42 = getelementptr inbounds nuw %struct.b2Vec2, ptr %41, i32 0, i32 1
  %43 = load float, ptr %42, align 4, !tbaa !250
  %44 = fadd float %40, %43
  store float %44, ptr %8, align 4, !tbaa !50
  %45 = getelementptr inbounds nuw %struct.b2Vec2, ptr %4, i32 0, i32 0
  %46 = load float, ptr %7, align 4, !tbaa !50
  store float %46, ptr %45, align 4, !tbaa !55
  %47 = getelementptr inbounds nuw %struct.b2Vec2, ptr %4, i32 0, i32 1
  %48 = load float, ptr %8, align 4, !tbaa !50
  store float %48, ptr %47, align 4, !tbaa !56
  call void @llvm.lifetime.end.p0(i64 4, ptr %8) #9
  call void @llvm.lifetime.end.p0(i64 4, ptr %7) #9
  %49 = load <2 x float>, ptr %4, align 4
  ret <2 x float> %49
}

; Function Attrs: inlinehint nounwind uwtable
define internal <2 x float> @b2InvRotateVector(<2 x float> %0, <2 x float> %1) #5 {
  %3 = alloca %struct.b2Vec2, align 4
  %4 = alloca %struct.b2Rot, align 4
  %5 = alloca %struct.b2Vec2, align 4
  store <2 x float> %0, ptr %4, align 4
  store <2 x float> %1, ptr %5, align 4
  %6 = getelementptr inbounds nuw %struct.b2Vec2, ptr %3, i32 0, i32 0
  %7 = getelementptr inbounds nuw %struct.b2Rot, ptr %4, i32 0, i32 0
  %8 = load float, ptr %7, align 4, !tbaa !253
  %9 = getelementptr inbounds nuw %struct.b2Vec2, ptr %5, i32 0, i32 0
  %10 = load float, ptr %9, align 4, !tbaa !55
  %11 = fmul float %8, %10
  %12 = getelementptr inbounds nuw %struct.b2Rot, ptr %4, i32 0, i32 1
  %13 = load float, ptr %12, align 4, !tbaa !254
  %14 = getelementptr inbounds nuw %struct.b2Vec2, ptr %5, i32 0, i32 1
  %15 = load float, ptr %14, align 4, !tbaa !56
  %16 = fmul float %13, %15
  %17 = fadd float %11, %16
  store float %17, ptr %6, align 4, !tbaa !55
  %18 = getelementptr inbounds nuw %struct.b2Vec2, ptr %3, i32 0, i32 1
  %19 = getelementptr inbounds nuw %struct.b2Rot, ptr %4, i32 0, i32 1
  %20 = load float, ptr %19, align 4, !tbaa !254
  %21 = fneg float %20
  %22 = getelementptr inbounds nuw %struct.b2Vec2, ptr %5, i32 0, i32 0
  %23 = load float, ptr %22, align 4, !tbaa !55
  %24 = fmul float %21, %23
  %25 = getelementptr inbounds nuw %struct.b2Rot, ptr %4, i32 0, i32 0
  %26 = load float, ptr %25, align 4, !tbaa !253
  %27 = getelementptr inbounds nuw %struct.b2Vec2, ptr %5, i32 0, i32 1
  %28 = load float, ptr %27, align 4, !tbaa !56
  %29 = fmul float %26, %28
  %30 = fadd float %24, %29
  store float %30, ptr %18, align 4, !tbaa !56
  %31 = load <2 x float>, ptr %3, align 4
  ret <2 x float> %31
}

; Function Attrs: inlinehint nounwind uwtable
define internal <2 x float> @b2InvTransformPoint(<2 x float> %0, <2 x float> %1, <2 x float> %2) #5 {
  %4 = alloca %struct.b2Vec2, align 4
  %5 = alloca %struct.b2Transform, align 4
  %6 = alloca %struct.b2Vec2, align 4
  %7 = alloca float, align 4
  %8 = alloca float, align 4
  %9 = getelementptr inbounds nuw { <2 x float>, <2 x float> }, ptr %5, i32 0, i32 0
  store <2 x float> %0, ptr %9, align 4
  %10 = getelementptr inbounds nuw { <2 x float>, <2 x float> }, ptr %5, i32 0, i32 1
  store <2 x float> %1, ptr %10, align 4
  store <2 x float> %2, ptr %6, align 4
  call void @llvm.lifetime.start.p0(i64 4, ptr %7) #9
  %11 = getelementptr inbounds nuw %struct.b2Vec2, ptr %6, i32 0, i32 0
  %12 = load float, ptr %11, align 4, !tbaa !55
  %13 = getelementptr inbounds nuw %struct.b2Transform, ptr %5, i32 0, i32 0
  %14 = getelementptr inbounds nuw %struct.b2Vec2, ptr %13, i32 0, i32 0
  %15 = load float, ptr %14, align 4, !tbaa !247
  %16 = fsub float %12, %15
  store float %16, ptr %7, align 4, !tbaa !50
  call void @llvm.lifetime.start.p0(i64 4, ptr %8) #9
  %17 = getelementptr inbounds nuw %struct.b2Vec2, ptr %6, i32 0, i32 1
  %18 = load float, ptr %17, align 4, !tbaa !56
  %19 = getelementptr inbounds nuw %struct.b2Transform, ptr %5, i32 0, i32 0
  %20 = getelementptr inbounds nuw %struct.b2Vec2, ptr %19, i32 0, i32 1
  %21 = load float, ptr %20, align 4, !tbaa !250
  %22 = fsub float %18, %21
  store float %22, ptr %8, align 4, !tbaa !50
  %23 = getelementptr inbounds nuw %struct.b2Vec2, ptr %4, i32 0, i32 0
  %24 = getelementptr inbounds nuw %struct.b2Transform, ptr %5, i32 0, i32 1
  %25 = getelementptr inbounds nuw %struct.b2Rot, ptr %24, i32 0, i32 0
  %26 = load float, ptr %25, align 4, !tbaa !251
  %27 = load float, ptr %7, align 4, !tbaa !50
  %28 = fmul float %26, %27
  %29 = getelementptr inbounds nuw %struct.b2Transform, ptr %5, i32 0, i32 1
  %30 = getelementptr inbounds nuw %struct.b2Rot, ptr %29, i32 0, i32 1
  %31 = load float, ptr %30, align 4, !tbaa !252
  %32 = load float, ptr %8, align 4, !tbaa !50
  %33 = fmul float %31, %32
  %34 = fadd float %28, %33
  store float %34, ptr %23, align 4, !tbaa !55
  %35 = getelementptr inbounds nuw %struct.b2Vec2, ptr %4, i32 0, i32 1
  %36 = getelementptr inbounds nuw %struct.b2Transform, ptr %5, i32 0, i32 1
  %37 = getelementptr inbounds nuw %struct.b2Rot, ptr %36, i32 0, i32 1
  %38 = load float, ptr %37, align 4, !tbaa !252
  %39 = fneg float %38
  %40 = load float, ptr %7, align 4, !tbaa !50
  %41 = fmul float %39, %40
  %42 = getelementptr inbounds nuw %struct.b2Transform, ptr %5, i32 0, i32 1
  %43 = getelementptr inbounds nuw %struct.b2Rot, ptr %42, i32 0, i32 0
  %44 = load float, ptr %43, align 4, !tbaa !251
  %45 = load float, ptr %8, align 4, !tbaa !50
  %46 = fmul float %44, %45
  %47 = fadd float %41, %46
  store float %47, ptr %35, align 4, !tbaa !56
  call void @llvm.lifetime.end.p0(i64 4, ptr %8) #9
  call void @llvm.lifetime.end.p0(i64 4, ptr %7) #9
  %48 = load <2 x float>, ptr %4, align 4
  ret <2 x float> %48
}

; Function Attrs: nounwind uwtable
define hidden void @b2ShapeCastShape(ptr dead_on_unwind noalias writable sret(%struct.b2CastOutput) align 4 %0, ptr noundef %1, ptr noundef %2, <2 x float> %3, <2 x float> %4) #3 {
  %6 = alloca %struct.b2Transform, align 4
  %7 = alloca ptr, align 8
  %8 = alloca ptr, align 8
  %9 = alloca %struct.b2ShapeCastInput, align 4
  %10 = alloca i32, align 4
  %11 = alloca %struct.b2Vec2, align 4
  %12 = alloca %struct.b2Vec2, align 4
  %13 = alloca %struct.b2CastOutput, align 4
  %14 = alloca %struct.b2CastOutput, align 4
  %15 = alloca %struct.b2CastOutput, align 4
  %16 = alloca %struct.b2CastOutput, align 4
  %17 = alloca %struct.b2CastOutput, align 4
  %18 = alloca i32, align 4
  %19 = alloca %struct.b2Vec2, align 4
  %20 = alloca %struct.b2Vec2, align 4
  %21 = getelementptr inbounds nuw { <2 x float>, <2 x float> }, ptr %6, i32 0, i32 0
  store <2 x float> %3, ptr %21, align 4
  %22 = getelementptr inbounds nuw { <2 x float>, <2 x float> }, ptr %6, i32 0, i32 1
  store <2 x float> %4, ptr %22, align 4
  store ptr %1, ptr %7, align 8, !tbaa !255
  store ptr %2, ptr %8, align 8, !tbaa !34
  call void @llvm.lifetime.start.p0(i64 84, ptr %9) #9
  %23 = load ptr, ptr %7, align 8, !tbaa !255
  call void @llvm.memcpy.p0.p0.i64(ptr align 4 %9, ptr align 4 %23, i64 84, i1 false), !tbaa.struct !257
  call void @llvm.lifetime.start.p0(i64 4, ptr %10) #9
  store i32 0, ptr %10, align 4, !tbaa !3
  br label %24

24:                                               ; preds = %46, %5
  %25 = load i32, ptr %10, align 4, !tbaa !3
  %26 = getelementptr inbounds nuw %struct.b2ShapeCastInput, ptr %9, i32 0, i32 1
  %27 = load i32, ptr %26, align 4, !tbaa !258
  %28 = icmp slt i32 %25, %27
  br i1 %28, label %30, label %29

29:                                               ; preds = %24
  call void @llvm.lifetime.end.p0(i64 4, ptr %10) #9
  br label %49

30:                                               ; preds = %24
  %31 = getelementptr inbounds nuw %struct.b2ShapeCastInput, ptr %9, i32 0, i32 0
  %32 = load i32, ptr %10, align 4, !tbaa !3
  %33 = sext i32 %32 to i64
  %34 = getelementptr inbounds [8 x %struct.b2Vec2], ptr %31, i64 0, i64 %33
  call void @llvm.lifetime.start.p0(i64 8, ptr %11) #9
  %35 = load ptr, ptr %7, align 8, !tbaa !255
  %36 = getelementptr inbounds nuw %struct.b2ShapeCastInput, ptr %35, i32 0, i32 0
  %37 = load i32, ptr %10, align 4, !tbaa !3
  %38 = sext i32 %37 to i64
  %39 = getelementptr inbounds [8 x %struct.b2Vec2], ptr %36, i64 0, i64 %38
  %40 = getelementptr inbounds nuw { <2 x float>, <2 x float> }, ptr %6, i32 0, i32 0
  %41 = load <2 x float>, ptr %40, align 4
  %42 = getelementptr inbounds nuw { <2 x float>, <2 x float> }, ptr %6, i32 0, i32 1
  %43 = load <2 x float>, ptr %42, align 4
  %44 = load <2 x float>, ptr %39, align 4
  %45 = call <2 x float> @b2InvTransformPoint(<2 x float> %41, <2 x float> %43, <2 x float> %44)
  store <2 x float> %45, ptr %11, align 4
  call void @llvm.memcpy.p0.p0.i64(ptr align 4 %34, ptr align 4 %11, i64 8, i1 false), !tbaa.struct !173
  call void @llvm.lifetime.end.p0(i64 8, ptr %11) #9
  br label %46

46:                                               ; preds = %30
  %47 = load i32, ptr %10, align 4, !tbaa !3
  %48 = add nsw i32 %47, 1
  store i32 %48, ptr %10, align 4, !tbaa !3
  br label %24, !llvm.loop !260

49:                                               ; preds = %29
  %50 = getelementptr inbounds nuw %struct.b2ShapeCastInput, ptr %9, i32 0, i32 3
  call void @llvm.lifetime.start.p0(i64 8, ptr %12) #9
  %51 = getelementptr inbounds nuw %struct.b2Transform, ptr %6, i32 0, i32 1
  %52 = load ptr, ptr %7, align 8, !tbaa !255
  %53 = getelementptr inbounds nuw %struct.b2ShapeCastInput, ptr %52, i32 0, i32 3
  %54 = load <2 x float>, ptr %51, align 4
  %55 = load <2 x float>, ptr %53, align 4
  %56 = call <2 x float> @b2InvRotateVector(<2 x float> %54, <2 x float> %55)
  store <2 x float> %56, ptr %12, align 4
  call void @llvm.memcpy.p0.p0.i64(ptr align 4 %50, ptr align 4 %12, i64 8, i1 false), !tbaa.struct !173
  call void @llvm.lifetime.end.p0(i64 8, ptr %12) #9
  call void @llvm.memset.p0.i64(ptr align 4 %0, i8 0, i64 28, i1 false)
  %57 = load ptr, ptr %8, align 8, !tbaa !34
  %58 = getelementptr inbounds nuw %struct.b2Shape, ptr %57, i32 0, i32 5
  %59 = load i32, ptr %58, align 4, !tbaa !201
  switch i32 %59, label %76 [
    i32 1, label %60
    i32 0, label %63
    i32 3, label %66
    i32 2, label %69
    i32 4, label %72
  ]

60:                                               ; preds = %49
  call void @llvm.lifetime.start.p0(i64 28, ptr %13) #9
  %61 = load ptr, ptr %8, align 8, !tbaa !34
  %62 = getelementptr inbounds nuw %struct.b2Shape, ptr %61, i32 0, i32 19
  call void @b2ShapeCastCapsule(ptr dead_on_unwind writable sret(%struct.b2CastOutput) align 4 %13, ptr noundef %9, ptr noundef %62)
  call void @llvm.memcpy.p0.p0.i64(ptr align 4 %0, ptr align 4 %13, i64 28, i1 false), !tbaa.struct !246
  call void @llvm.lifetime.end.p0(i64 28, ptr %13) #9
  br label %77

63:                                               ; preds = %49
  call void @llvm.lifetime.start.p0(i64 28, ptr %14) #9
  %64 = load ptr, ptr %8, align 8, !tbaa !34
  %65 = getelementptr inbounds nuw %struct.b2Shape, ptr %64, i32 0, i32 19
  call void @b2ShapeCastCircle(ptr dead_on_unwind writable sret(%struct.b2CastOutput) align 4 %14, ptr noundef %9, ptr noundef %65)
  call void @llvm.memcpy.p0.p0.i64(ptr align 4 %0, ptr align 4 %14, i64 28, i1 false), !tbaa.struct !246
  call void @llvm.lifetime.end.p0(i64 28, ptr %14) #9
  br label %77

66:                                               ; preds = %49
  call void @llvm.lifetime.start.p0(i64 28, ptr %15) #9
  %67 = load ptr, ptr %8, align 8, !tbaa !34
  %68 = getelementptr inbounds nuw %struct.b2Shape, ptr %67, i32 0, i32 19
  call void @b2ShapeCastPolygon(ptr dead_on_unwind writable sret(%struct.b2CastOutput) align 4 %15, ptr noundef %9, ptr noundef %68)
  call void @llvm.memcpy.p0.p0.i64(ptr align 4 %0, ptr align 4 %15, i64 28, i1 false), !tbaa.struct !246
  call void @llvm.lifetime.end.p0(i64 28, ptr %15) #9
  br label %77

69:                                               ; preds = %49
  call void @llvm.lifetime.start.p0(i64 28, ptr %16) #9
  %70 = load ptr, ptr %8, align 8, !tbaa !34
  %71 = getelementptr inbounds nuw %struct.b2Shape, ptr %70, i32 0, i32 19
  call void @b2ShapeCastSegment(ptr dead_on_unwind writable sret(%struct.b2CastOutput) align 4 %16, ptr noundef %9, ptr noundef %71)
  call void @llvm.memcpy.p0.p0.i64(ptr align 4 %0, ptr align 4 %16, i64 28, i1 false), !tbaa.struct !246
  call void @llvm.lifetime.end.p0(i64 28, ptr %16) #9
  br label %77

72:                                               ; preds = %49
  call void @llvm.lifetime.start.p0(i64 28, ptr %17) #9
  %73 = load ptr, ptr %8, align 8, !tbaa !34
  %74 = getelementptr inbounds nuw %struct.b2Shape, ptr %73, i32 0, i32 19
  %75 = getelementptr inbounds nuw %struct.b2ChainSegment, ptr %74, i32 0, i32 1
  call void @b2ShapeCastSegment(ptr dead_on_unwind writable sret(%struct.b2CastOutput) align 4 %17, ptr noundef %9, ptr noundef %75)
  call void @llvm.memcpy.p0.p0.i64(ptr align 4 %0, ptr align 4 %17, i64 28, i1 false), !tbaa.struct !246
  call void @llvm.lifetime.end.p0(i64 28, ptr %17) #9
  br label %77

76:                                               ; preds = %49
  store i32 1, ptr %18, align 4
  br label %92

77:                                               ; preds = %72, %69, %66, %63, %60
  %78 = getelementptr inbounds nuw %struct.b2CastOutput, ptr %0, i32 0, i32 1
  call void @llvm.lifetime.start.p0(i64 8, ptr %19) #9
  %79 = getelementptr inbounds nuw %struct.b2CastOutput, ptr %0, i32 0, i32 1
  %80 = getelementptr inbounds nuw { <2 x float>, <2 x float> }, ptr %6, i32 0, i32 0
  %81 = load <2 x float>, ptr %80, align 4
  %82 = getelementptr inbounds nuw { <2 x float>, <2 x float> }, ptr %6, i32 0, i32 1
  %83 = load <2 x float>, ptr %82, align 4
  %84 = load <2 x float>, ptr %79, align 4
  %85 = call <2 x float> @b2TransformPoint(<2 x float> %81, <2 x float> %83, <2 x float> %84)
  store <2 x float> %85, ptr %19, align 4
  call void @llvm.memcpy.p0.p0.i64(ptr align 4 %78, ptr align 4 %19, i64 8, i1 false), !tbaa.struct !173
  call void @llvm.lifetime.end.p0(i64 8, ptr %19) #9
  %86 = getelementptr inbounds nuw %struct.b2CastOutput, ptr %0, i32 0, i32 0
  call void @llvm.lifetime.start.p0(i64 8, ptr %20) #9
  %87 = getelementptr inbounds nuw %struct.b2Transform, ptr %6, i32 0, i32 1
  %88 = getelementptr inbounds nuw %struct.b2CastOutput, ptr %0, i32 0, i32 0
  %89 = load <2 x float>, ptr %87, align 4
  %90 = load <2 x float>, ptr %88, align 4
  %91 = call <2 x float> @b2RotateVector(<2 x float> %89, <2 x float> %90)
  store <2 x float> %91, ptr %20, align 4
  call void @llvm.memcpy.p0.p0.i64(ptr align 4 %86, ptr align 4 %20, i64 8, i1 false), !tbaa.struct !173
  call void @llvm.lifetime.end.p0(i64 8, ptr %20) #9
  store i32 1, ptr %18, align 4
  br label %92

92:                                               ; preds = %77, %76
  call void @llvm.lifetime.end.p0(i64 84, ptr %9) #9
  ret void
}