; Function Attrs: nounwind uwtable
define hidden void @b2ShapeCastShape(ptr dead_on_unwind noalias writable sret(%struct.b2CastOutput) align 4 captures(none) %0, ptr noundef readonly captures(none) %1, ptr noundef %2, <2 x float> %3, <2 x float> %4) local_unnamed_addr #3 {
  %6 = alloca %struct.b2ShapeCastInput, align 4
  call void @llvm.lifetime.start.p0(i64 84, ptr nonnull %6) #10
  call void @llvm.memcpy.p0.p0.i64(ptr noundef nonnull align 4 dereferenceable(84) %6, ptr noundef nonnull align 4 dereferenceable(84) %1, i64 84, i1 false), !tbaa.struct !203
  %7 = getelementptr inbounds nuw i8, ptr %6, i64 64
  %8 = load i32, ptr %7, align 4, !tbaa !204
  %9 = icmp sgt i32 %8, 0
  br i1 %9, label %.lr.ph, label %.._crit_edge_crit_edge

.._crit_edge_crit_edge:                           ; preds = %5
  %.pre = extractelement <2 x float> %4, i64 0
  %.pre34 = extractelement <2 x float> %4, i64 1
  br label %._crit_edge

.lr.ph:                                           ; preds = %5
  %.sroa.3.8.vec.extract.i = extractelement <2 x float> %4, i64 0
  %.sroa.3.12.vec.extract.i = extractelement <2 x float> %4, i64 1
  br label %21

._crit_edge:                                      ; preds = %21, %.._crit_edge_crit_edge
  %.sroa.05.4.vec.extract.i.pre-phi = phi float [ %.pre34, %.._crit_edge_crit_edge ], [ %.sroa.3.12.vec.extract.i, %21 ]
  %.sroa.05.0.vec.extract.i.pre-phi = phi float [ %.pre, %.._crit_edge_crit_edge ], [ %.sroa.3.8.vec.extract.i, %21 ]
  %10 = getelementptr inbounds nuw i8, ptr %6, i64 72
  %11 = getelementptr inbounds nuw i8, ptr %1, i64 72
  %12 = load <2 x float>, ptr %11, align 4
  %.sroa.0.0.vec.extract.i = extractelement <2 x float> %12, i64 0
  %13 = fmul float %.sroa.05.0.vec.extract.i.pre-phi, %.sroa.0.0.vec.extract.i
  %.sroa.0.4.vec.extract.i = extractelement <2 x float> %12, i64 1
  %14 = fmul float %.sroa.05.4.vec.extract.i.pre-phi, %.sroa.0.4.vec.extract.i
  %15 = fadd float %13, %14
  %.sroa.010.0.vec.insert.i = insertelement <2 x float> poison, float %15, i64 0
  %16 = fmul float %.sroa.05.0.vec.extract.i.pre-phi, %.sroa.0.4.vec.extract.i
  %17 = fmul float %.sroa.05.4.vec.extract.i.pre-phi, %.sroa.0.0.vec.extract.i
  %18 = fsub float %16, %17
  %.sroa.010.4.vec.insert.i = insertelement <2 x float> %.sroa.010.0.vec.insert.i, float %18, i64 1
  store <2 x float> %.sroa.010.4.vec.insert.i, ptr %10, align 4
  tail call void @llvm.memset.p0.i64(ptr noundef nonnull align 4 dereferenceable(28) %0, i8 0, i64 28, i1 false)
  %19 = getelementptr inbounds nuw i8, ptr %2, i64 20
  %20 = load i32, ptr %19, align 4, !tbaa !171
  switch i32 %20, label %67 [
    i32 1, label %39
    i32 0, label %41
    i32 3, label %43
    i32 2, label %45
    i32 4, label %47
  ]

21:                                               ; preds = %.lr.ph, %21
  %indvars.iv = phi i64 [ 0, %.lr.ph ], [ %indvars.iv.next, %21 ]
  %22 = getelementptr inbounds nuw [8 x %struct.b2Vec2], ptr %6, i64 0, i64 %indvars.iv
  %23 = getelementptr inbounds nuw [8 x %struct.b2Vec2], ptr %1, i64 0, i64 %indvars.iv
  %24 = load <2 x float>, ptr %23, align 4
  %25 = fsub <2 x float> %24, %3
  %26 = extractelement <2 x float> %25, i64 0
  %27 = fsub <2 x float> %24, %3
  %28 = extractelement <2 x float> %27, i64 1
  %29 = fmul <2 x float> %4, %25
  %30 = extractelement <2 x float> %29, i64 0
  %31 = fmul float %.sroa.3.12.vec.extract.i, %28
  %32 = fadd float %30, %31
  %.sroa.09.0.vec.insert.i = insertelement <2 x float> poison, float %32, i64 0
  %33 = fmul float %.sroa.3.8.vec.extract.i, %28
  %34 = fmul float %.sroa.3.12.vec.extract.i, %26
  %35 = fsub float %33, %34
  %.sroa.09.4.vec.insert.i = insertelement <2 x float> %.sroa.09.0.vec.insert.i, float %35, i64 1
  store <2 x float> %.sroa.09.4.vec.insert.i, ptr %22, align 4
  %indvars.iv.next = add nuw nsw i64 %indvars.iv, 1
  %36 = load i32, ptr %7, align 4, !tbaa !204
  %37 = sext i32 %36 to i64
  %38 = icmp slt i64 %indvars.iv.next, %37
  br i1 %38, label %21, label %._crit_edge, !llvm.loop !206

39:                                               ; preds = %._crit_edge
  %40 = getelementptr inbounds nuw i8, ptr %2, i64 132
  call void @b2ShapeCastCapsule(ptr dead_on_unwind nonnull writable sret(%struct.b2CastOutput) align 4 %0, ptr noundef nonnull %6, ptr noundef nonnull %40) #10
  br label %49

41:                                               ; preds = %._crit_edge
  %42 = getelementptr inbounds nuw i8, ptr %2, i64 132
  call void @b2ShapeCastCircle(ptr dead_on_unwind nonnull writable sret(%struct.b2CastOutput) align 4 %0, ptr noundef nonnull %6, ptr noundef nonnull %42) #10
  br label %49

43:                                               ; preds = %._crit_edge
  %44 = getelementptr inbounds nuw i8, ptr %2, i64 132
  call void @b2ShapeCastPolygon(ptr dead_on_unwind nonnull writable sret(%struct.b2CastOutput) align 4 %0, ptr noundef nonnull %6, ptr noundef nonnull %44) #10
  br label %49

45:                                               ; preds = %._crit_edge
  %46 = getelementptr inbounds nuw i8, ptr %2, i64 132
  call void @b2ShapeCastSegment(ptr dead_on_unwind nonnull writable sret(%struct.b2CastOutput) align 4 %0, ptr noundef nonnull %6, ptr noundef nonnull %46) #10
  br label %49

47:                                               ; preds = %._crit_edge
  %48 = getelementptr inbounds nuw i8, ptr %2, i64 140
  call void @b2ShapeCastSegment(ptr dead_on_unwind nonnull writable sret(%struct.b2CastOutput) align 4 %0, ptr noundef nonnull %6, ptr noundef nonnull %48) #10
  br label %49

49:                                               ; preds = %47, %45, %43, %41, %39
  %50 = getelementptr inbounds nuw i8, ptr %0, i64 8
  %51 = load <2 x float>, ptr %50, align 4
  %.sroa.0.0.vec.extract.i23 = extractelement <2 x float> %51, i64 0
  %52 = fmul float %.sroa.05.0.vec.extract.i.pre-phi, %.sroa.0.0.vec.extract.i23
  %.sroa.0.4.vec.extract.i25 = extractelement <2 x float> %51, i64 1
  %53 = fmul float %.sroa.05.4.vec.extract.i.pre-phi, %.sroa.0.4.vec.extract.i25
  %54 = fsub float %52, %53
  %.sroa.06.0.vec.extract.i = extractelement <2 x float> %3, i64 0
  %55 = fadd float %.sroa.06.0.vec.extract.i, %54
  %56 = fmul float %.sroa.05.4.vec.extract.i.pre-phi, %.sroa.0.0.vec.extract.i23
  %57 = fmul float %.sroa.05.0.vec.extract.i.pre-phi, %.sroa.0.4.vec.extract.i25
  %58 = fadd float %56, %57
  %.sroa.06.4.vec.extract.i = extractelement <2 x float> %3, i64 1
  %59 = fadd float %.sroa.06.4.vec.extract.i, %58
  %.sroa.011.0.vec.insert.i = insertelement <2 x float> poison, float %55, i64 0
  %.sroa.011.4.vec.insert.i = insertelement <2 x float> %.sroa.011.0.vec.insert.i, float %59, i64 1
  store <2 x float> %.sroa.011.4.vec.insert.i, ptr %50, align 4
  %60 = load <2 x float>, ptr %0, align 4
  %.sroa.0.0.vec.extract.i27 = extractelement <2 x float> %60, i64 0
  %61 = fmul float %.sroa.05.0.vec.extract.i.pre-phi, %.sroa.0.0.vec.extract.i27
  %.sroa.0.4.vec.extract.i29 = extractelement <2 x float> %60, i64 1
  %62 = fmul float %.sroa.05.4.vec.extract.i.pre-phi, %.sroa.0.4.vec.extract.i29
  %63 = fsub float %61, %62
  %.sroa.010.0.vec.insert.i30 = insertelement <2 x float> poison, float %63, i64 0
  %64 = fmul float %.sroa.05.4.vec.extract.i.pre-phi, %.sroa.0.0.vec.extract.i27
  %65 = fmul float %.sroa.05.0.vec.extract.i.pre-phi, %.sroa.0.4.vec.extract.i29
  %66 = fadd float %64, %65
  %.sroa.010.4.vec.insert.i31 = insertelement <2 x float> %.sroa.010.0.vec.insert.i30, float %66, i64 1
  store <2 x float> %.sroa.010.4.vec.insert.i31, ptr %0, align 4
  br label %67

67:                                               ; preds = %._crit_edge, %49
  call void @llvm.lifetime.end.p0(i64 84, ptr nonnull %6) #10
  ret void
}